target datalayout = "e-m:e-p270:32:32-p271:32:32-p272:64:64-i64:64-i128:128-f80:128-n8:16:32:64-S128"
target triple = "x86_64-pc-linux-gnu"

; Function Attrs: mustprogress nounwind uwtable
define void @_ZN6casadi16SparsityInternal13qr_sparsitiesEPKxxPxS3_S2_S2_S2_S3_(ptr noundef %0, i64 noundef %1, ptr noundef %2, ptr noundef %3, ptr noundef %4, ptr noundef %5, ptr noundef %6, ptr noundef %7) #4 align 2 {
  %9 = alloca ptr, align 8
  %10 = alloca i64, align 8
  %11 = alloca ptr, align 8
  %12 = alloca ptr, align 8
  %13 = alloca ptr, align 8
  %14 = alloca ptr, align 8
  %15 = alloca ptr, align 8
  %16 = alloca ptr, align 8
  %17 = alloca i64, align 8
  %18 = alloca ptr, align 8
  %19 = alloca ptr, align 8
  %20 = alloca ptr, align 8
  %21 = alloca ptr, align 8
  %22 = alloca ptr, align 8
  %23 = alloca ptr, align 8
  %24 = alloca ptr, align 8
  %25 = alloca i64, align 8
  %26 = alloca i64, align 8
  %27 = alloca i64, align 8
  %28 = alloca i64, align 8
  %29 = alloca i64, align 8
  %30 = alloca i64, align 8
  %31 = alloca i64, align 8
  %32 = alloca i64, align 8
  %33 = alloca i64, align 8
  %34 = alloca i64, align 8
  store ptr %0, ptr %9, align 8
  store i64 %1, ptr %10, align 8
  store ptr %2, ptr %11, align 8
  store ptr %3, ptr %12, align 8
  store ptr %4, ptr %13, align 8
  store ptr %5, ptr %14, align 8
  store ptr %6, ptr %15, align 8
  store ptr %7, ptr %16, align 8
  %35 = load ptr, ptr %9, align 8
  %36 = getelementptr inbounds i64, ptr %35, i64 1
  %37 = load i64, ptr %36, align 8
  store i64 %37, ptr %17, align 8
  %38 = load ptr, ptr %9, align 8
  %39 = getelementptr inbounds i64, ptr %38, i64 2
  store ptr %39, ptr %18, align 8
  %40 = load ptr, ptr %9, align 8
  %41 = getelementptr inbounds i64, ptr %40, i64 2
  %42 = load i64, ptr %17, align 8
  %43 = getelementptr inbounds i64, ptr %41, i64 %42
  %44 = getelementptr inbounds i64, ptr %43, i64 1
  store ptr %44, ptr %19, align 8
  %45 = load ptr, ptr %11, align 8
  %46 = getelementptr inbounds i64, ptr %45, i64 2
  store ptr %46, ptr %20, align 8
  %47 = load ptr, ptr %11, align 8
  %48 = getelementptr inbounds i64, ptr %47, i64 2
  %49 = load i64, ptr %17, align 8
  %50 = getelementptr inbounds i64, ptr %48, i64 %49
  %51 = getelementptr inbounds i64, ptr %50, i64 1
  store ptr %51, ptr %21, align 8
  %52 = load ptr, ptr %12, align 8
  %53 = getelementptr inbounds i64, ptr %52, i64 2
  store ptr %53, ptr %22, align 8
  %54 = load ptr, ptr %12, align 8
  %55 = getelementptr inbounds i64, ptr %54, i64 2
  %56 = load i64, ptr %17, align 8
  %57 = getelementptr inbounds i64, ptr %55, i64 %56
  %58 = getelementptr inbounds i64, ptr %57, i64 1
  store ptr %58, ptr %23, align 8
  %59 = load i64, ptr %10, align 8
  %60 = load ptr, ptr %12, align 8
  %61 = getelementptr inbounds i64, ptr %60, i64 0
  store i64 %59, ptr %61, align 8
  %62 = load ptr, ptr %11, align 8
  %63 = getelementptr inbounds i64, ptr %62, i64 0
  store i64 %59, ptr %63, align 8
  %64 = load i64, ptr %17, align 8
  %65 = load ptr, ptr %12, align 8
  %66 = getelementptr inbounds i64, ptr %65, i64 1
  store i64 %64, ptr %66, align 8
  %67 = load ptr, ptr %11, align 8
  %68 = getelementptr inbounds i64, ptr %67, i64 1
  store i64 %64, ptr %68, align 8
  %69 = load ptr, ptr %16, align 8
  store ptr %69, ptr %24, align 8
  %70 = load i64, ptr %17, align 8
  %71 = load ptr, ptr %16, align 8
  %72 = getelementptr inbounds i64, ptr %71, i64 %70
  store ptr %72, ptr %16, align 8
  store i64 0, ptr %25, align 8
  br label %73

73:                                               ; preds = %81, %8
  %74 = load i64, ptr %25, align 8
  %75 = load i64, ptr %10, align 8
  %76 = icmp slt i64 %74, %75
  br i1 %76, label %77, label %84

77:                                               ; preds = %73
  %78 = load ptr, ptr %16, align 8
  %79 = load i64, ptr %25, align 8
  %80 = getelementptr inbounds i64, ptr %78, i64 %79
  store i64 -1, ptr %80, align 8
  br label %81

81:                                               ; preds = %77
  %82 = load i64, ptr %25, align 8
  %83 = add nsw i64 %82, 1
  store i64 %83, ptr %25, align 8
  br label %73, !llvm.loop !39

84:                                               ; preds = %73
  store i64 0, ptr %33, align 8
  store i64 0, ptr %34, align 8
  store i64 0, ptr %26, align 8
  br label %85

85:                                               ; preds = %267, %84
  %86 = load i64, ptr %26, align 8
  %87 = load i64, ptr %17, align 8
  %88 = icmp slt i64 %86, %87
  br i1 %88, label %89, label %270

89:                                               ; preds = %85
  %90 = load i64, ptr %33, align 8
  %91 = load ptr, ptr %22, align 8
  %92 = load i64, ptr %26, align 8
  %93 = getelementptr inbounds i64, ptr %91, i64 %92
  store i64 %90, ptr %93, align 8
  %94 = load i64, ptr %34, align 8
  store i64 %94, ptr %28, align 8
  %95 = load ptr, ptr %20, align 8
  %96 = load i64, ptr %26, align 8
  %97 = getelementptr inbounds i64, ptr %95, i64 %96
  store i64 %94, ptr %97, align 8
  %98 = load i64, ptr %26, align 8
  %99 = load ptr, ptr %16, align 8
  %100 = load i64, ptr %26, align 8
  %101 = getelementptr inbounds i64, ptr %99, i64 %100
  store i64 %98, ptr %101, align 8
  %102 = load i64, ptr %26, align 8
  %103 = load ptr, ptr %21, align 8
  %104 = load i64, ptr %34, align 8
  %105 = add nsw i64 %104, 1
  store i64 %105, ptr %34, align 8
  %106 = getelementptr inbounds i64, ptr %103, i64 %104
  store i64 %102, ptr %106, align 8
  %107 = load i64, ptr %17, align 8
  store i64 %107, ptr %29, align 8
  %108 = load ptr, ptr %18, align 8
  %109 = load i64, ptr %26, align 8
  %110 = getelementptr inbounds i64, ptr %108, i64 %109
  %111 = load i64, ptr %110, align 8
  store i64 %111, ptr %27, align 8
  br label %112

112:                                              ; preds = %193, %89
  %113 = load i64, ptr %27, align 8
  %114 = load ptr, ptr %18, align 8
  %115 = load i64, ptr %26, align 8
  %116 = add nsw i64 %115, 1
  %117 = getelementptr inbounds i64, ptr %114, i64 %116
  %118 = load i64, ptr %117, align 8
  %119 = icmp slt i64 %113, %118
  br i1 %119, label %120, label %196

120:                                              ; preds = %112
  %121 = load ptr, ptr %13, align 8
  %122 = load ptr, ptr %19, align 8
  %123 = load i64, ptr %27, align 8
  %124 = getelementptr inbounds i64, ptr %122, i64 %123
  %125 = load i64, ptr %124, align 8
  %126 = getelementptr inbounds i64, ptr %121, i64 %125
  %127 = load i64, ptr %126, align 8
  store i64 %127, ptr %25, align 8
  store i64 0, ptr %30, align 8
  br label %128

128:                                              ; preds = %145, %120
  %129 = load ptr, ptr %16, align 8
  %130 = load i64, ptr %25, align 8
  %131 = getelementptr inbounds i64, ptr %129, i64 %130
  %132 = load i64, ptr %131, align 8
  %133 = load i64, ptr %26, align 8
  %134 = icmp ne i64 %132, %133
  br i1 %134, label %135, label %150

135:                                              ; preds = %128
  %136 = load i64, ptr %25, align 8
  %137 = load ptr, ptr %24, align 8
  %138 = load i64, ptr %30, align 8
  %139 = add nsw i64 %138, 1
  store i64 %139, ptr %30, align 8
  %140 = getelementptr inbounds i64, ptr %137, i64 %138
  store i64 %136, ptr %140, align 8
  %141 = load i64, ptr %26, align 8
  %142 = load ptr, ptr %16, align 8
  %143 = load i64, ptr %25, align 8
  %144 = getelementptr inbounds i64, ptr %142, i64 %143
  store i64 %141, ptr %144, align 8
  br label %145

145:                                              ; preds = %135
  %146 = load ptr, ptr %14, align 8
  %147 = load i64, ptr %25, align 8
  %148 = getelementptr inbounds i64, ptr %146, i64 %147
  %149 = load i64, ptr %148, align 8
  store i64 %149, ptr %25, align 8
  br label %128, !llvm.loop !40

150:                                              ; preds = %128
  br label %151

151:                                              ; preds = %154, %150
  %152 = load i64, ptr %30, align 8
  %153 = icmp sgt i64 %152, 0
  br i1 %153, label %154, label %164

154:                                              ; preds = %151
  %155 = load ptr, ptr %24, align 8
  %156 = load i64, ptr %30, align 8
  %157 = add nsw i64 %156, -1
  store i64 %157, ptr %30, align 8
  %158 = getelementptr inbounds i64, ptr %155, i64 %157
  %159 = load i64, ptr %158, align 8
  %160 = load ptr, ptr %24, align 8
  %161 = load i64, ptr %29, align 8
  %162 = add nsw i64 %161, -1
  store i64 %162, ptr %29, align 8
  %163 = getelementptr inbounds i64, ptr %160, i64 %162
  store i64 %159, ptr %163, align 8
  br label %151, !llvm.loop !41

164:                                              ; preds = %151
  %165 = load ptr, ptr %15, align 8
  %166 = load ptr, ptr %19, align 8
  %167 = load i64, ptr %27, align 8
  %168 = getelementptr inbounds i64, ptr %166, i64 %167
  %169 = load i64, ptr %168, align 8
  %170 = getelementptr inbounds i64, ptr %165, i64 %169
  %171 = load i64, ptr %170, align 8
  store i64 %171, ptr %25, align 8
  %172 = load i64, ptr %25, align 8
  %173 = load i64, ptr %26, align 8
  %174 = icmp sgt i64 %172, %173
  br i1 %174, label %175, label %192

175:                                              ; preds = %164
  %176 = load ptr, ptr %16, align 8
  %177 = load i64, ptr %25, align 8
  %178 = getelementptr inbounds i64, ptr %176, i64 %177
  %179 = load i64, ptr %178, align 8
  %180 = load i64, ptr %26, align 8
  %181 = icmp slt i64 %179, %180
  br i1 %181, label %182, label %192

182:                                              ; preds = %175
  %183 = load i64, ptr %25, align 8
  %184 = load ptr, ptr %21, align 8
  %185 = load i64, ptr %34, align 8
  %186 = add nsw i64 %185, 1
  store i64 %186, ptr %34, align 8
  %187 = getelementptr inbounds i64, ptr %184, i64 %185
  store i64 %183, ptr %187, align 8
  %188 = load i64, ptr %26, align 8
  %189 = load ptr, ptr %16, align 8
  %190 = load i64, ptr %25, align 8
  %191 = getelementptr inbounds i64, ptr %189, i64 %190
  store i64 %188, ptr %191, align 8
  br label %192

192:                                              ; preds = %182, %175, %164
  br label %193

193:                                              ; preds = %192
  %194 = load i64, ptr %27, align 8
  %195 = add nsw i64 %194, 1
  store i64 %195, ptr %27, align 8
  br label %112, !llvm.loop !42

196:                                              ; preds = %112
  %197 = load i64, ptr %29, align 8
  store i64 %197, ptr %27, align 8
  br label %198

198:                                              ; preds = %258, %196
  %199 = load i64, ptr %27, align 8
  %200 = load i64, ptr %17, align 8
  %201 = icmp slt i64 %199, %200
  br i1 %201, label %202, label %261

202:                                              ; preds = %198
  %203 = load ptr, ptr %24, align 8
  %204 = load i64, ptr %27, align 8
  %205 = getelementptr inbounds i64, ptr %203, i64 %204
  %206 = load i64, ptr %205, align 8
  store i64 %206, ptr %25, align 8
  %207 = load i64, ptr %25, align 8
  %208 = load ptr, ptr %23, align 8
  %209 = load i64, ptr %33, align 8
  %210 = add nsw i64 %209, 1
  store i64 %210, ptr %33, align 8
  %211 = getelementptr inbounds i64, ptr %208, i64 %209
  store i64 %207, ptr %211, align 8
  %212 = load ptr, ptr %14, align 8
  %213 = load i64, ptr %25, align 8
  %214 = getelementptr inbounds i64, ptr %212, i64 %213
  %215 = load i64, ptr %214, align 8
  %216 = load i64, ptr %26, align 8
  %217 = icmp eq i64 %215, %216
  br i1 %217, label %218, label %257

218:                                              ; preds = %202
  %219 = load ptr, ptr %20, align 8
  %220 = load i64, ptr %25, align 8
  %221 = getelementptr inbounds i64, ptr %219, i64 %220
  %222 = load i64, ptr %221, align 8
  store i64 %222, ptr %31, align 8
  br label %223

223:                                              ; preds = %253, %218
  %224 = load i64, ptr %31, align 8
  %225 = load ptr, ptr %20, align 8
  %226 = load i64, ptr %25, align 8
  %227 = add nsw i64 %226, 1
  %228 = getelementptr inbounds i64, ptr %225, i64 %227
  %229 = load i64, ptr %228, align 8
  %230 = icmp slt i64 %224, %229
  br i1 %230, label %231, label %256

231:                                              ; preds = %223
  %232 = load ptr, ptr %21, align 8
  %233 = load i64, ptr %31, align 8
  %234 = getelementptr inbounds i64, ptr %232, i64 %233
  %235 = load i64, ptr %234, align 8
  store i64 %235, ptr %32, align 8
  %236 = load ptr, ptr %16, align 8
  %237 = load i64, ptr %32, align 8
  %238 = getelementptr inbounds i64, ptr %236, i64 %237
  %239 = load i64, ptr %238, align 8
  %240 = load i64, ptr %26, align 8
  %241 = icmp slt i64 %239, %240
  br i1 %241, label %242, label %252

242:                                              ; preds = %231
  %243 = load i64, ptr %26, align 8
  %244 = load ptr, ptr %16, align 8
  %245 = load i64, ptr %32, align 8
  %246 = getelementptr inbounds i64, ptr %244, i64 %245
  store i64 %243, ptr %246, align 8
  %247 = load i64, ptr %32, align 8
  %248 = load ptr, ptr %21, align 8
  %249 = load i64, ptr %34, align 8
  %250 = add nsw i64 %249, 1
  store i64 %250, ptr %34, align 8
  %251 = getelementptr inbounds i64, ptr %248, i64 %249
  store i64 %247, ptr %251, align 8
  br label %252

252:                                              ; preds = %242, %231
  br label %253

253:                                              ; preds = %252
  %254 = load i64, ptr %31, align 8
  %255 = add nsw i64 %254, 1
  store i64 %255, ptr %31, align 8
  br label %223, !llvm.loop !43

256:                                              ; preds = %223
  br label %257

257:                                              ; preds = %256, %202
  br label %258

258:                                              ; preds = %257
  %259 = load i64, ptr %27, align 8
  %260 = add nsw i64 %259, 1
  store i64 %260, ptr %27, align 8
  br label %198, !llvm.loop !44

261:                                              ; preds = %198
  %262 = load i64, ptr %26, align 8
  %263 = load ptr, ptr %23, align 8
  %264 = load i64, ptr %33, align 8
  %265 = add nsw i64 %264, 1
  store i64 %265, ptr %33, align 8
  %266 = getelementptr inbounds i64, ptr %263, i64 %264
  store i64 %262, ptr %266, align 8
  br label %267

267:                                              ; preds = %261
  %268 = load i64, ptr %26, align 8
  %269 = add nsw i64 %268, 1
  store i64 %269, ptr %26, align 8
  br label %85, !llvm.loop !45

270:                                              ; preds = %85
  %271 = load i64, ptr %33, align 8
  %272 = load ptr, ptr %22, align 8
  %273 = load i64, ptr %17, align 8
  %274 = getelementptr inbounds i64, ptr %272, i64 %273
  store i64 %271, ptr %274, align 8
  %275 = load i64, ptr %34, align 8
  %276 = load ptr, ptr %20, align 8
  %277 = load i64, ptr %17, align 8
  %278 = getelementptr inbounds i64, ptr %276, i64 %277
  store i64 %275, ptr %278, align 8
  ret void
}