; Function Attrs: mustprogress nofree norecurse nosync nounwind memory(write, argmem: readwrite, inaccessiblemem: none) uwtable
define void @_ZN6casadi16SparsityInternal13qr_sparsitiesEPKxxPxS3_S2_S2_S2_S3_(ptr nocapture noundef readonly %0, i64 noundef %1, ptr nocapture noundef %2, ptr nocapture noundef writeonly %3, ptr nocapture noundef readonly %4, ptr nocapture noundef readonly %5, ptr nocapture noundef readonly %6, ptr nocapture noundef %7) local_unnamed_addr #5 align 2 {
  %9 = getelementptr inbounds i8, ptr %0, i64 8
  %10 = load i64, ptr %9, align 8
  %11 = getelementptr inbounds i8, ptr %0, i64 16
  %12 = getelementptr inbounds i64, ptr %11, i64 %10
  %13 = getelementptr inbounds i8, ptr %12, i64 8
  %14 = getelementptr inbounds i8, ptr %2, i64 16
  %15 = getelementptr inbounds i64, ptr %14, i64 %10
  %16 = getelementptr inbounds i8, ptr %15, i64 8
  %17 = getelementptr inbounds i8, ptr %3, i64 16
  %18 = getelementptr inbounds i64, ptr %17, i64 %10
  %19 = getelementptr inbounds i8, ptr %18, i64 8
  store i64 %1, ptr %3, align 8
  store i64 %1, ptr %2, align 8
  %20 = getelementptr inbounds i8, ptr %3, i64 8
  store i64 %10, ptr %20, align 8
  %21 = getelementptr inbounds i8, ptr %2, i64 8
  store i64 %10, ptr %21, align 8
  %22 = getelementptr i64, ptr %7, i64 %10
  %23 = icmp sgt i64 %1, 0
  br i1 %23, label %.lr.ph.preheader, label %.preheader131

.lr.ph.preheader:                                 ; preds = %8
  %24 = shl nuw i64 %1, 3
  tail call void @llvm.memset.p0.i64(ptr align 8 %22, i8 -1, i64 %24, i1 false)
  br label %.preheader131

.preheader131:                                    ; preds = %.lr.ph.preheader, %8
  %25 = icmp sgt i64 %10, 0
  br i1 %25, label %.lr.ph165, label %._crit_edge166

.lr.ph165:                                        ; preds = %.preheader131, %._crit_edge159
  %.0164 = phi i64 [ %.3.lcssa, %._crit_edge159 ], [ 0, %.preheader131 ]
  %.0116163 = phi i64 [ %99, %._crit_edge159 ], [ 0, %.preheader131 ]
  %.0127162 = phi i64 [ %33, %._crit_edge159 ], [ 0, %.preheader131 ]
  %26 = getelementptr inbounds i64, ptr %17, i64 %.0127162
  store i64 %.0116163, ptr %26, align 8
  %27 = getelementptr inbounds i64, ptr %14, i64 %.0127162
  store i64 %.0164, ptr %27, align 8
  %28 = getelementptr inbounds i64, ptr %22, i64 %.0127162
  store i64 %.0127162, ptr %28, align 8
  %29 = add nsw i64 %.0164, 1
  %30 = getelementptr inbounds i64, ptr %16, i64 %.0164
  store i64 %.0127162, ptr %30, align 8
  %31 = getelementptr inbounds i64, ptr %11, i64 %.0127162
  %32 = load i64, ptr %31, align 8
  %33 = add nuw nsw i64 %.0127162, 1
  %34 = getelementptr inbounds i64, ptr %11, i64 %33
  %35 = load i64, ptr %34, align 8
  %36 = icmp slt i64 %32, %35
  br i1 %36, label %.lr.ph146, label %._crit_edge159

.preheader130:                                    ; preds = %68
  %37 = icmp slt i64 %.1122.lcssa, %10
  br i1 %37, label %.lr.ph158.preheader, label %._crit_edge159

.lr.ph158.preheader:                              ; preds = %.preheader130
  %38 = add i64 %10, %.0116163
  %39 = sub i64 %38, %.1122.lcssa
  br label %.lr.ph158

.lr.ph146:                                        ; preds = %.lr.ph165, %68
  %.1144 = phi i64 [ %.2, %68 ], [ %29, %.lr.ph165 ]
  %.0121143 = phi i64 [ %.1122.lcssa, %68 ], [ %10, %.lr.ph165 ]
  %.0125142 = phi i64 [ %69, %68 ], [ %32, %.lr.ph165 ]
  %40 = getelementptr inbounds i64, ptr %13, i64 %.0125142
  %41 = load i64, ptr %40, align 8
  %42 = getelementptr inbounds i64, ptr %4, i64 %41
  %.1124133 = load i64, ptr %42, align 8
  %43 = getelementptr inbounds i64, ptr %22, i64 %.1124133
  %44 = load i64, ptr %43, align 8
  %.not134 = icmp eq i64 %44, %.0127162
  br i1 %.not134, label %._crit_edge, label %.lr.ph137

.lr.ph137:                                        ; preds = %.lr.ph146, %.lr.ph137
  %45 = phi ptr [ %49, %.lr.ph137 ], [ %43, %.lr.ph146 ]
  %.1124136 = phi i64 [ %.1124, %.lr.ph137 ], [ %.1124133, %.lr.ph146 ]
  %.0119135 = phi i64 [ %46, %.lr.ph137 ], [ 0, %.lr.ph146 ]
  %46 = add nuw nsw i64 %.0119135, 1
  %47 = getelementptr inbounds i64, ptr %7, i64 %.0119135
  store i64 %.1124136, ptr %47, align 8
  store i64 %.0127162, ptr %45, align 8
  %48 = getelementptr inbounds i64, ptr %5, i64 %.1124136
  %.1124 = load i64, ptr %48, align 8
  %49 = getelementptr inbounds i64, ptr %22, i64 %.1124
  %50 = load i64, ptr %49, align 8
  %.not = icmp eq i64 %50, %.0127162
  br i1 %.not, label %.lr.ph140, label %.lr.ph137, !llvm.loop !30

.lr.ph140:                                        ; preds = %.lr.ph137, %.lr.ph140
  %.1120139 = phi i64 [ %51, %.lr.ph140 ], [ %46, %.lr.ph137 ]
  %.1122138 = phi i64 [ %54, %.lr.ph140 ], [ %.0121143, %.lr.ph137 ]
  %51 = add nsw i64 %.1120139, -1
  %52 = getelementptr inbounds i64, ptr %7, i64 %51
  %53 = load i64, ptr %52, align 8
  %54 = add nsw i64 %.1122138, -1
  %55 = getelementptr inbounds i64, ptr %7, i64 %54
  store i64 %53, ptr %55, align 8
  %56 = icmp sgt i64 %.1120139, 1
  br i1 %56, label %.lr.ph140, label %._crit_edge, !llvm.loop !31

._crit_edge:                                      ; preds = %.lr.ph140, %.lr.ph146
  %.1122.lcssa = phi i64 [ %.0121143, %.lr.ph146 ], [ %54, %.lr.ph140 ]
  %57 = load i64, ptr %40, align 8
  %58 = getelementptr inbounds i64, ptr %6, i64 %57
  %59 = load i64, ptr %58, align 8
  %60 = icmp sgt i64 %59, %.0127162
  br i1 %60, label %61, label %68

61:                                               ; preds = %._crit_edge
  %62 = getelementptr inbounds i64, ptr %22, i64 %59
  %63 = load i64, ptr %62, align 8
  %64 = icmp slt i64 %63, %.0127162
  br i1 %64, label %65, label %68

65:                                               ; preds = %61
  %66 = add nsw i64 %.1144, 1
  %67 = getelementptr inbounds i64, ptr %16, i64 %.1144
  store i64 %59, ptr %67, align 8
  store i64 %.0127162, ptr %62, align 8
  br label %68

68:                                               ; preds = %._crit_edge, %61, %65
  %.2 = phi i64 [ %66, %65 ], [ %.1144, %61 ], [ %.1144, %._crit_edge ]
  %69 = add nsw i64 %.0125142, 1
  %70 = load i64, ptr %34, align 8
  %71 = icmp slt i64 %69, %70
  br i1 %71, label %.lr.ph146, label %.preheader130, !llvm.loop !32

.lr.ph158:                                        ; preds = %.lr.ph158.preheader, %.loopexit
  %.3157 = phi i64 [ %.6, %.loopexit ], [ %.2, %.lr.ph158.preheader ]
  %.1117156 = phi i64 [ %74, %.loopexit ], [ %.0116163, %.lr.ph158.preheader ]
  %.1126155 = phi i64 [ %98, %.loopexit ], [ %.1122.lcssa, %.lr.ph158.preheader ]
  %72 = getelementptr inbounds i64, ptr %7, i64 %.1126155
  %73 = load i64, ptr %72, align 8
  %74 = add i64 %.1117156, 1
  %75 = getelementptr inbounds i64, ptr %19, i64 %.1117156
  store i64 %73, ptr %75, align 8
  %76 = getelementptr inbounds i64, ptr %5, i64 %73
  %77 = load i64, ptr %76, align 8
  %78 = icmp eq i64 %77, %.0127162
  br i1 %78, label %79, label %.loopexit

79:                                               ; preds = %.lr.ph158
  %80 = getelementptr inbounds i64, ptr %14, i64 %73
  %81 = load i64, ptr %80, align 8
  %82 = getelementptr i8, ptr %80, i64 8
  %83 = load i64, ptr %82, align 8
  %84 = icmp slt i64 %81, %83
  br i1 %84, label %.lr.ph153, label %.loopexit

.lr.ph153:                                        ; preds = %79, %94
  %85 = phi i64 [ %95, %94 ], [ %83, %79 ]
  %.4151 = phi i64 [ %.5, %94 ], [ %.3157, %79 ]
  %.0118150 = phi i64 [ %96, %94 ], [ %81, %79 ]
  %86 = getelementptr inbounds i64, ptr %16, i64 %.0118150
  %87 = load i64, ptr %86, align 8
  %88 = getelementptr inbounds i64, ptr %22, i64 %87
  %89 = load i64, ptr %88, align 8
  %90 = icmp slt i64 %89, %.0127162
  br i1 %90, label %91, label %94

91:                                               ; preds = %.lr.ph153
  store i64 %.0127162, ptr %88, align 8
  %92 = add nsw i64 %.4151, 1
  %93 = getelementptr inbounds i64, ptr %16, i64 %.4151
  store i64 %87, ptr %93, align 8
  %.pre = load i64, ptr %82, align 8
  br label %94

94:                                               ; preds = %.lr.ph153, %91
  %95 = phi i64 [ %.pre, %91 ], [ %85, %.lr.ph153 ]
  %.5 = phi i64 [ %92, %91 ], [ %.4151, %.lr.ph153 ]
  %96 = add nsw i64 %.0118150, 1
  %97 = icmp slt i64 %96, %95
  br i1 %97, label %.lr.ph153, label %.loopexit, !llvm.loop !33

.loopexit:                                        ; preds = %94, %79, %.lr.ph158
  %.6 = phi i64 [ %.3157, %.lr.ph158 ], [ %.3157, %79 ], [ %.5, %94 ]
  %98 = add nsw i64 %.1126155, 1
  %exitcond.not = icmp eq i64 %74, %39
  br i1 %exitcond.not, label %._crit_edge159, label %.lr.ph158, !llvm.loop !34

._crit_edge159:                                   ; preds = %.loopexit, %.lr.ph165, %.preheader130
  %.1117.lcssa = phi i64 [ %.0116163, %.preheader130 ], [ %.0116163, %.lr.ph165 ], [ %39, %.loopexit ]
  %.3.lcssa = phi i64 [ %.2, %.preheader130 ], [ %29, %.lr.ph165 ], [ %.6, %.loopexit ]
  %99 = add nsw i64 %.1117.lcssa, 1
  %100 = getelementptr inbounds i64, ptr %19, i64 %.1117.lcssa
  store i64 %.0127162, ptr %100, align 8
  %exitcond173.not = icmp eq i64 %33, %10
  br i1 %exitcond173.not, label %._crit_edge166, label %.lr.ph165, !llvm.loop !35

._crit_edge166:                                   ; preds = %._crit_edge159, %.preheader131
  %.0116.lcssa = phi i64 [ 0, %.preheader131 ], [ %99, %._crit_edge159 ]
  %.0.lcssa = phi i64 [ 0, %.preheader131 ], [ %.3.lcssa, %._crit_edge159 ]
  store i64 %.0116.lcssa, ptr %18, align 8
  store i64 %.0.lcssa, ptr %15, align 8
  ret void
}